target datalayout = "e-m:e-p270:32:32-p271:32:32-p272:64:64-i64:64-i128:128-f80:128-n8:16:32:64-S128"
target triple = "x86_64-pc-linux-gnu"

%struct.Curl_sockaddr_ex = type { i32, i32, i32, i32, %union.anon }
%union.anon = type { %struct.Curl_sockaddr_storage }
%struct.Curl_sockaddr_storage = type { %union.anon.0 }
%union.anon.0 = type { %struct.sockaddr_storage }
%struct.sockaddr_storage = type { i16, [118 x i8], i64 }
%struct.Curl_llist_node = type { ptr, ptr, ptr, ptr }
%struct.easy_pollset = type { [5 x i32], i32, [5 x i8] }
%struct.curltime = type { i64, i32 }
%struct.ssl_primary_config = type { ptr, ptr, ptr, ptr, ptr, ptr, ptr, ptr, ptr, ptr, ptr, ptr, ptr, ptr, i8, i32, i8, i8 }
%struct.dynbuf = type { ptr, i64, i64, i64 }
%struct.Curl_llist = type { ptr, ptr, ptr, i64 }
%struct.ip_quadruple = type { [46 x i8], [46 x i8], i32, i32 }
%struct.connectdata = type { %struct.Curl_llist_node, ptr, ptr, i64, ptr, i64, ptr, ptr, %struct.hostname, ptr, ptr, %struct.hostname, %struct.proxy_info, %struct.proxy_info, %struct.ip_quadruple, %struct.ip_quadruple, ptr, ptr, ptr, ptr, ptr, %struct.curltime, %struct.curltime, %struct.curltime, [2 x i32], [2 x ptr], [2 x ptr], [2 x ptr], %struct.anon, %struct.easy_pollset, %struct.ssl_primary_config, %struct.ssl_primary_config, %struct.ConnectBits, ptr, ptr, %struct.curltime, i32, i32, %struct.Curl_llist, i32, i32, %struct.ntlmdata, %struct.ntlmdata, %union.anon.2, ptr, ptr, i16, i32, i32, i32, i32, i16, i16, i8, i8, i8, i8, i8, i8, i8 }
%struct.hostname = type { ptr, ptr, ptr, ptr }
%struct.proxy_info = type { %struct.hostname, i32, i8, ptr, ptr }
%struct.anon = type { [2 x %struct.curltime], i32 }
%struct.ConnectBits = type { i64 }
%struct.ntlmdata = type { i32, [8 x i8], i32, ptr }
%union.anon.2 = type { %struct.ftp_conn }
%struct.ftp_conn = type { %struct.pingpong, ptr, ptr, ptr, ptr, ptr, ptr, ptr, i8, i64, ptr, i64, i32, i32, i32, i32, i32, i16, i8, i8, i8, i8, i8 }
%struct.pingpong = type { i64, i8, ptr, i64, i64, %struct.curltime, i64, %struct.dynbuf, %struct.dynbuf, i64, i64, ptr, ptr }
%struct.Curl_cfilter = type { ptr, ptr, ptr, ptr, i32, i8 }
%struct.cf_socket_ctx = type { i32, %struct.Curl_sockaddr_ex, i32, %struct.ip_quadruple, %struct.curltime, %struct.curltime, %struct.curltime, i32, i8 }

; Function Attrs: nounwind uwtable
define internal void @cf_socket_get_host(ptr noundef %0, ptr noundef %1, ptr noundef %2, ptr noundef %3, ptr noundef %4) #0 {
  %6 = alloca ptr, align 8
  %7 = alloca ptr, align 8
  %8 = alloca ptr, align 8
  %9 = alloca ptr, align 8
  %10 = alloca ptr, align 8
  %11 = alloca ptr, align 8
  store ptr %0, ptr %6, align 8, !tbaa !118
  store ptr %1, ptr %7, align 8, !tbaa !23
  store ptr %2, ptr %8, align 8, !tbaa !113
  store ptr %3, ptr %9, align 8, !tbaa !113
  store ptr %4, ptr %10, align 8, !tbaa !25
  call void @llvm.lifetime.start.p0(i64 8, ptr %11) #9
  %12 = load ptr, ptr %6, align 8, !tbaa !118
  %13 = getelementptr inbounds nuw %struct.Curl_cfilter, ptr %12, i32 0, i32 2
  %14 = load ptr, ptr %13, align 8, !tbaa !120
  store ptr %14, ptr %11, align 8, !tbaa !123
  %15 = load ptr, ptr %6, align 8, !tbaa !118
  %16 = getelementptr inbounds nuw %struct.Curl_cfilter, ptr %15, i32 0, i32 3
  %17 = load ptr, ptr %16, align 8, !tbaa !139
  %18 = getelementptr inbounds nuw %struct.connectdata, ptr %17, i32 0, i32 8
  %19 = getelementptr inbounds nuw %struct.hostname, ptr %18, i32 0, i32 2
  %20 = load ptr, ptr %19, align 8, !tbaa !148
  %21 = load ptr, ptr %8, align 8, !tbaa !113
  store ptr %20, ptr %21, align 8, !tbaa !112
  %22 = load ptr, ptr %6, align 8, !tbaa !118
  %23 = getelementptr inbounds nuw %struct.Curl_cfilter, ptr %22, i32 0, i32 3
  %24 = load ptr, ptr %23, align 8, !tbaa !139
  %25 = getelementptr inbounds nuw %struct.connectdata, ptr %24, i32 0, i32 8
  %26 = getelementptr inbounds nuw %struct.hostname, ptr %25, i32 0, i32 3
  %27 = load ptr, ptr %26, align 8, !tbaa !149
  %28 = load ptr, ptr %9, align 8, !tbaa !113
  store ptr %27, ptr %28, align 8, !tbaa !112
  %29 = load ptr, ptr %11, align 8, !tbaa !123
  %30 = getelementptr inbounds nuw %struct.cf_socket_ctx, ptr %29, i32 0, i32 3
  %31 = getelementptr inbounds nuw %struct.ip_quadruple, ptr %30, i32 0, i32 2
  %32 = load i32, ptr %31, align 4, !tbaa !144
  %33 = load ptr, ptr %10, align 8, !tbaa !25
  store i32 %32, ptr %33, align 4, !tbaa !10
  call void @llvm.lifetime.end.p0(i64 8, ptr %11) #9
  ret void
}