; Function Attrs: mustprogress nofree norecurse nosync nounwind willreturn memory(read, argmem: readwrite, inaccessiblemem: none) uwtable
define internal void @cf_socket_get_host(ptr noundef readonly captures(none) %0, ptr readnone captures(none) %1, ptr noundef writeonly captures(none) initializes((0, 8)) %2, ptr noundef writeonly captures(none) initializes((0, 8)) %3, ptr noundef writeonly captures(none) initializes((0, 4)) %4) #6 {
  %6 = getelementptr inbounds nuw i8, ptr %0, i64 16
  %7 = load ptr, ptr %6, align 8, !tbaa !104
  %8 = getelementptr inbounds nuw i8, ptr %0, i64 24
  %9 = load ptr, ptr %8, align 8, !tbaa !118
  %10 = getelementptr inbounds nuw i8, ptr %9, i64 104
  %11 = load ptr, ptr %10, align 8, !tbaa !129
  store ptr %11, ptr %2, align 8, !tbaa !102
  %12 = getelementptr inbounds nuw i8, ptr %9, i64 112
  %13 = load ptr, ptr %12, align 8, !tbaa !130
  store ptr %13, ptr %3, align 8, !tbaa !102
  %14 = getelementptr inbounds nuw i8, ptr %7, i64 248
  %15 = load i32, ptr %14, align 4, !tbaa !123
  store i32 %15, ptr %4, align 4, !tbaa !87
  ret void
}